; Function Attrs: mustprogress nounwind uwtable
define void @_ZN10OpenSubdiv6v3_6_03Bfr16PatchTreeBuilderD2Ev(ptr nocapture noundef nonnull readonly align 8 dereferenceable(80) %0) unnamed_addr #6 align 2 personality ptr @__gxx_personality_v0 {
  %2 = getelementptr inbounds nuw i8, ptr %0, i64 72
  %3 = load ptr, ptr %2, align 8
  %4 = icmp eq ptr %3, null
  br i1 %4, label %9, label %5

5:                                                ; preds = %1
  %6 = load ptr, ptr %3, align 8
  %7 = getelementptr inbounds i8, ptr %6, i64 8
  %8 = load ptr, ptr %7, align 8
  tail call void %8(ptr noundef nonnull align 8 dereferenceable(56) %3) #19
  br label %9

9:                                                ; preds = %5, %1
  %10 = getelementptr inbounds nuw i8, ptr %0, i64 48
  %11 = load ptr, ptr %10, align 8
  %.not.i.i.i = icmp eq ptr %11, null
  br i1 %.not.i.i.i, label %_ZNSt6vectorIN10OpenSubdiv6v3_6_03Bfr16PatchTreeBuilder9PatchFaceESaIS4_EED2Ev.exit, label %12

12:                                               ; preds = %9
  %13 = getelementptr inbounds i8, ptr %0, i64 64
  %14 = load ptr, ptr %13, align 8
  %15 = ptrtoint ptr %14 to i64
  %16 = ptrtoint ptr %11 to i64
  %17 = sub i64 %15, %16
  tail call void @_ZdlPvm(ptr noundef nonnull %11, i64 noundef %17) #17
  br label %_ZNSt6vectorIN10OpenSubdiv6v3_6_03Bfr16PatchTreeBuilder9PatchFaceESaIS4_EED2Ev.exit

_ZNSt6vectorIN10OpenSubdiv6v3_6_03Bfr16PatchTreeBuilder9PatchFaceESaIS4_EED2Ev.exit: ; preds = %9, %12
  %18 = getelementptr inbounds nuw i8, ptr %0, i64 24
  %19 = load ptr, ptr %18, align 8
  %.not.i.i.i1 = icmp eq ptr %19, null
  br i1 %.not.i.i.i1, label %_ZNSt6vectorIiSaIiEED2Ev.exit, label %20

20:                                               ; preds = %_ZNSt6vectorIN10OpenSubdiv6v3_6_03Bfr16PatchTreeBuilder9PatchFaceESaIS4_EED2Ev.exit
  %21 = getelementptr inbounds i8, ptr %0, i64 40
  %22 = load ptr, ptr %21, align 8
  %23 = ptrtoint ptr %22 to i64
  %24 = ptrtoint ptr %19 to i64
  %25 = sub i64 %23, %24
  tail call void @_ZdlPvm(ptr noundef nonnull %19, i64 noundef %25) #17
  br label %_ZNSt6vectorIiSaIiEED2Ev.exit

_ZNSt6vectorIiSaIiEED2Ev.exit:                    ; preds = %_ZNSt6vectorIN10OpenSubdiv6v3_6_03Bfr16PatchTreeBuilder9PatchFaceESaIS4_EED2Ev.exit, %20
  ret void
}